; Function Attrs: mustprogress uwtable
define void @_ZN5arrow12ArrayBuilder14CheckArrayTypeERKSt10shared_ptrINS_8DataTypeEERKNS_5ArrayEPKc(ptr noalias sret(%"class.arrow::Status") align 8 %agg.result, ptr nocapture noundef nonnull readnone align 8 dereferenceable(144) %this, ptr nocapture noundef nonnull readonly align 8 dereferenceable(16) %expected_type, ptr nocapture noundef nonnull readonly align 8 dereferenceable(32) %array, ptr noundef %message) local_unnamed_addr #0 align 2 {
entry:
  %message.addr = alloca ptr, align 8
  store ptr %message, ptr %message.addr, align 8
  %0 = load ptr, ptr %expected_type, align 8
  %data_.i = getelementptr inbounds i8, ptr %array, i64 8
  %1 = load ptr, ptr %data_.i, align 8
  %2 = load ptr, ptr %1, align 8
  %call4 = tail call noundef zeroext i1 @_ZNK5arrow8DataType6EqualsERKS0_b(ptr noundef nonnull align 8 dereferenceable(72) %0, ptr noundef nonnull align 8 dereferenceable(72) %2, i1 noundef zeroext false)
  br i1 %call4, label %if.end, label %if.then

if.then:                                          ; preds = %entry
  call void @_ZN5arrow6Status8FromArgsIJRPKcEEES0_NS_10StatusCodeEDpOT_(ptr sret(%"class.arrow::Status") align 8 %agg.result, i8 noundef signext 3, ptr noundef nonnull align 8 dereferenceable(8) %message.addr)
  br label %return

if.end:                                           ; preds = %entry
  store ptr null, ptr %agg.result, align 8, !alias.scope !4
  br label %return

return:                                           ; preds = %if.end, %if.then
  ret void
}